target datalayout = "e-m:e-p270:32:32-p271:32:32-p272:64:64-i64:64-i128:128-f80:128-n8:16:32:64-S128"
target triple = "x86_64-pc-linux-gnu"

%struct.reassembly_table = type { ptr, ptr, ptr, ptr, ptr }
%struct.reassembly_table_functions = type { ptr, ptr, ptr, ptr, ptr, ptr }

@.str.498 = private unnamed_addr constant [25 x i8] c"Andrew File System (AFS)\00", align 1
@.str.499 = private unnamed_addr constant [9 x i8] c"AFS (RX)\00", align 1
@.str.500 = private unnamed_addr constant [4 x i8] c"afs\00", align 1
@proto_afs = internal global i32 0, align 4
@afs_reassembly_table = internal global %struct.reassembly_table zeroinitializer, align 8
@addresses_reassembly_table_functions = external constant %struct.reassembly_table_functions, align 8
@afs_request_hash = internal global ptr null, align 8
@.str.501 = private unnamed_addr constant [11 x i8] c"defragment\00", align 1
@.str.502 = private unnamed_addr constant [31 x i8] c"Reassemble fragmented AFS PDUs\00", align 1
@.str.503 = private unnamed_addr constant [50 x i8] c"Whether fragmented AFS PDUs should be reassembled\00", align 1
@afs_defragment = internal global i8 0, align 1

; Function Attrs: null_pointer_is_valid sspstrong uwtable
define hidden void @proto_register_afs() #0 {
  %1 = alloca ptr, align 8
  call void @llvm.lifetime.start.p0(i64 8, ptr %1) #9
  %2 = call i32 @proto_register_protocol(ptr noundef @.str.498, ptr noundef @.str.499, ptr noundef @.str.500)
  store i32 %2, ptr @proto_afs, align 4
  %3 = load i32, ptr @proto_afs, align 4
  call void @proto_register_field_array(i32 noundef %3, ptr noundef @proto_register_afs.hf, i32 noundef 266)
  call void @proto_register_subtree_array(ptr noundef @proto_register_afs.ett, i32 noundef 16)
  call void @reassembly_table_register(ptr noundef @afs_reassembly_table, ptr noundef @addresses_reassembly_table_functions)
  %4 = call ptr @wmem_epan_scope()
  %5 = call ptr @wmem_file_scope()
  %6 = call noalias ptr @wmem_map_new_autoreset(ptr noundef %4, ptr noundef %5, ptr noundef @afs_hash, ptr noundef @afs_equal)
  store ptr %6, ptr @afs_request_hash, align 8
  %7 = load i32, ptr @proto_afs, align 4
  %8 = call ptr @prefs_register_protocol(i32 noundef %7, ptr noundef null)
  store ptr %8, ptr %1, align 8
  %9 = load ptr, ptr %1, align 8
  call void @prefs_register_bool_preference(ptr noundef %9, ptr noundef @.str.501, ptr noundef @.str.502, ptr noundef @.str.503, ptr noundef @afs_defragment)
  %10 = load i32, ptr @proto_afs, align 4
  %11 = call ptr @register_dissector(ptr noundef @.str.500, ptr noundef @dissect_afs, i32 noundef %10)
  call void @llvm.lifetime.end.p0(i64 8, ptr %1) #9
  ret void
}