; Function Attrs: null_pointer_is_valid sspstrong uwtable
define hidden void @proto_register_afs() local_unnamed_addr #0 {
  %1 = tail call i32 @proto_register_protocol(ptr noundef nonnull @.str.498, ptr noundef nonnull @.str.499, ptr noundef nonnull @.str.500)
  store i32 %1, ptr @proto_afs, align 4
  tail call void @proto_register_field_array(i32 noundef %1, ptr noundef nonnull @proto_register_afs.hf, i32 noundef 266)
  tail call void @proto_register_subtree_array(ptr noundef nonnull @proto_register_afs.ett, i32 noundef 16)
  tail call void @reassembly_table_register(ptr noundef nonnull @afs_reassembly_table, ptr noundef nonnull @addresses_reassembly_table_functions)
  %2 = tail call ptr @wmem_epan_scope()
  %3 = tail call ptr @wmem_file_scope()
  %4 = tail call noalias ptr @wmem_map_new_autoreset(ptr noundef %2, ptr noundef %3, ptr noundef nonnull @afs_hash, ptr noundef nonnull @afs_equal)
  store ptr %4, ptr @afs_request_hash, align 8
  %5 = load i32, ptr @proto_afs, align 4
  %6 = tail call ptr @prefs_register_protocol(i32 noundef %5, ptr noundef null)
  tail call void @prefs_register_bool_preference(ptr noundef %6, ptr noundef nonnull @.str.501, ptr noundef nonnull @.str.502, ptr noundef nonnull @.str.503, ptr noundef nonnull @afs_defragment)
  %7 = load i32, ptr @proto_afs, align 4
  %8 = tail call ptr @register_dissector(ptr noundef nonnull @.str.500, ptr noundef nonnull @dissect_afs, i32 noundef %7)
  ret void
}